target datalayout = "e-m:e-p270:32:32-p271:32:32-p272:64:64-i64:64-i128:128-f80:128-n8:16:32:64-S128"
target triple = "x86_64-pc-linux-gnu"

%"class.zmq::msg_t" = type { %union.anon }
%union.anon = type { %struct.anon }
%struct.anon = type { ptr, [34 x i8], i8, i8, i32, %"union.zmq::msg_t::group_t" }
%"union.zmq::msg_t::group_t" = type { %struct.anon.1 }
%struct.anon.1 = type { i8, ptr }
%struct.stats_socket = type { i64, i64 }

; Function Attrs: mustprogress uwtable
define internal noundef i32 @_ZL7capturePN3zmq13socket_base_tEPNS_5msg_tEi(ptr noundef %0, ptr noundef %1, i32 noundef %2) #0 {
  %4 = alloca i32, align 4
  %5 = alloca ptr, align 8
  %6 = alloca ptr, align 8
  %7 = alloca i32, align 4
  %8 = alloca %"class.zmq::msg_t", align 8
  %9 = alloca i32, align 4
  %10 = alloca i32, align 4
  store ptr %0, ptr %5, align 8, !tbaa !3
  store ptr %1, ptr %6, align 8, !tbaa !25
  store i32 %2, ptr %7, align 4, !tbaa !8
  %11 = load ptr, ptr %5, align 8, !tbaa !3
  %12 = icmp ne ptr %11, null
  br i1 %12, label %13, label %46

13:                                               ; preds = %3
  call void @llvm.lifetime.start.p0(i64 64, ptr %8) #12
  call void @llvm.lifetime.start.p0(i64 4, ptr %9) #12
  %14 = call noundef i32 @_ZN3zmq5msg_t4initEv(ptr noundef nonnull align 8 dereferenceable(64) %8)
  store i32 %14, ptr %9, align 4, !tbaa !8
  %15 = load i32, ptr %9, align 4, !tbaa !8
  %16 = icmp slt i32 %15, 0
  %17 = zext i1 %16 to i64
  %18 = call i64 @llvm.expect.i64(i64 %17, i64 0)
  %19 = icmp ne i64 %18, 0
  br i1 %19, label %20, label %21

20:                                               ; preds = %13
  store i32 -1, ptr %4, align 4
  store i32 1, ptr %10, align 4
  br label %43

21:                                               ; preds = %13
  %22 = load ptr, ptr %6, align 8, !tbaa !25
  %23 = call noundef i32 @_ZN3zmq5msg_t4copyERS0_(ptr noundef nonnull align 8 dereferenceable(64) %8, ptr noundef nonnull align 8 dereferenceable(64) %22)
  store i32 %23, ptr %9, align 4, !tbaa !8
  %24 = load i32, ptr %9, align 4, !tbaa !8
  %25 = icmp slt i32 %24, 0
  %26 = zext i1 %25 to i64
  %27 = call i64 @llvm.expect.i64(i64 %26, i64 0)
  %28 = icmp ne i64 %27, 0
  br i1 %28, label %29, label %30

29:                                               ; preds = %21
  store i32 -1, ptr %4, align 4
  store i32 1, ptr %10, align 4
  br label %43

30:                                               ; preds = %21
  %31 = load ptr, ptr %5, align 8, !tbaa !3
  %32 = load i32, ptr %7, align 4, !tbaa !8
  %33 = icmp ne i32 %32, 0
  %34 = select i1 %33, i32 2, i32 0
  %35 = call noundef i32 @_ZN3zmq13socket_base_t4sendEPNS_5msg_tEi(ptr noundef nonnull align 8 dereferenceable(1825) %31, ptr noundef %8, i32 noundef %34)
  store i32 %35, ptr %9, align 4, !tbaa !8
  %36 = load i32, ptr %9, align 4, !tbaa !8
  %37 = icmp slt i32 %36, 0
  %38 = zext i1 %37 to i64
  %39 = call i64 @llvm.expect.i64(i64 %38, i64 0)
  %40 = icmp ne i64 %39, 0
  br i1 %40, label %41, label %42

41:                                               ; preds = %30
  store i32 -1, ptr %4, align 4
  store i32 1, ptr %10, align 4
  br label %43

42:                                               ; preds = %30
  store i32 0, ptr %10, align 4
  br label %43

43:                                               ; preds = %42, %41, %29, %20
  call void @llvm.lifetime.end.p0(i64 4, ptr %9) #12
  call void @llvm.lifetime.end.p0(i64 64, ptr %8) #12
  %44 = load i32, ptr %10, align 4
  switch i32 %44, label %49 [
    i32 0, label %45
    i32 1, label %47
  ]

45:                                               ; preds = %43
  br label %46

46:                                               ; preds = %45, %3
  store i32 0, ptr %4, align 4
  br label %47

47:                                               ; preds = %46, %43
  %48 = load i32, ptr %4, align 4
  ret i32 %48

49:                                               ; preds = %43
  unreachable
}

; Function Attrs: mustprogress uwtable
define internal noundef i32 @_ZL7forwardPN3zmq13socket_base_tES1_S1_PNS_5msg_tER12stats_socketS5_(ptr noundef %0, ptr noundef %1, ptr noundef %2, ptr noundef %3, ptr noundef nonnull align 8 dereferenceable(16) %4, ptr noundef nonnull align 8 dereferenceable(16) %5) #0 {
  %7 = alloca i32, align 4
  %8 = alloca ptr, align 8
  %9 = alloca ptr, align 8
  %10 = alloca ptr, align 8
  %11 = alloca ptr, align 8
  %12 = alloca ptr, align 8
  %13 = alloca ptr, align 8
  %14 = alloca i32, align 4
  %15 = alloca i32, align 4
  %16 = alloca i32, align 4
  %17 = alloca i64, align 8
  %18 = alloca i32, align 4
  %19 = alloca i64, align 8
  store ptr %0, ptr %8, align 8, !tbaa !3
  store ptr %1, ptr %9, align 8, !tbaa !3
  store ptr %2, ptr %10, align 8, !tbaa !3
  store ptr %3, ptr %11, align 8, !tbaa !25
  store ptr %4, ptr %12, align 8, !tbaa !48
  store ptr %5, ptr %13, align 8, !tbaa !48
  call void @llvm.lifetime.start.p0(i64 4, ptr %14) #12
  store i32 0, ptr %14, align 4, !tbaa !8
  br label %20

20:                                               ; preds = %112, %6
  %21 = load i32, ptr %14, align 4, !tbaa !8
  %22 = icmp ult i32 %21, 1000
  br i1 %22, label %24, label %23

23:                                               ; preds = %20
  store i32 2, ptr %15, align 4
  br label %115

24:                                               ; preds = %20
  call void @llvm.lifetime.start.p0(i64 4, ptr %16) #12
  call void @llvm.lifetime.start.p0(i64 8, ptr %17) #12
  br label %25

25:                                               ; preds = %107, %24
  br label %26

26:                                               ; preds = %25
  call void @llvm.lifetime.start.p0(i64 4, ptr %18) #12
  %27 = load ptr, ptr %8, align 8, !tbaa !3
  %28 = load ptr, ptr %11, align 8, !tbaa !25
  %29 = call noundef i32 @_ZN3zmq13socket_base_t4recvEPNS_5msg_tEi(ptr noundef nonnull align 8 dereferenceable(1825) %27, ptr noundef %28, i32 noundef 1)
  store i32 %29, ptr %18, align 4, !tbaa !8
  %30 = load i32, ptr %18, align 4, !tbaa !8
  %31 = icmp slt i32 %30, 0
  br i1 %31, label %32, label %46

32:                                               ; preds = %26
  %33 = call ptr @__errno_location() #15
  %34 = load i32, ptr %33, align 4, !tbaa !8
  %35 = icmp eq i32 %34, 11
  br i1 %35, label %36, label %39

36:                                               ; preds = %32
  %37 = load i32, ptr %14, align 4, !tbaa !8
  %38 = icmp ugt i32 %37, 0
  br label %39

39:                                               ; preds = %36, %32
  %40 = phi i1 [ false, %32 ], [ %38, %36 ]
  %41 = zext i1 %40 to i64
  %42 = call i64 @llvm.expect.i64(i64 %41, i64 1)
  %43 = icmp ne i64 %42, 0
  br i1 %43, label %44, label %45

44:                                               ; preds = %39
  store i32 0, ptr %7, align 4
  store i32 1, ptr %15, align 4
  br label %105

45:                                               ; preds = %39
  store i32 -1, ptr %7, align 4
  store i32 1, ptr %15, align 4
  br label %105

46:                                               ; preds = %26
  call void @llvm.lifetime.start.p0(i64 8, ptr %19) #12
  %47 = load ptr, ptr %11, align 8, !tbaa !25
  %48 = call noundef i64 @_ZNK3zmq5msg_t4sizeEv(ptr noundef nonnull align 8 dereferenceable(64) %47)
  store i64 %48, ptr %19, align 8, !tbaa !34
  %49 = load ptr, ptr %12, align 8, !tbaa !48
  %50 = getelementptr inbounds nuw %struct.stats_socket, ptr %49, i32 0, i32 0
  %51 = load i64, ptr %50, align 8, !tbaa !50
  %52 = add i64 %51, 1
  store i64 %52, ptr %50, align 8, !tbaa !50
  %53 = load i64, ptr %19, align 8, !tbaa !34
  %54 = load ptr, ptr %12, align 8, !tbaa !48
  %55 = getelementptr inbounds nuw %struct.stats_socket, ptr %54, i32 0, i32 1
  %56 = load i64, ptr %55, align 8, !tbaa !51
  %57 = add i64 %56, %53
  store i64 %57, ptr %55, align 8, !tbaa !51
  store i64 4, ptr %17, align 8, !tbaa !34
  %58 = load ptr, ptr %8, align 8, !tbaa !3
  %59 = call noundef i32 @_ZN3zmq13socket_base_t10getsockoptEiPvPm(ptr noundef nonnull align 8 dereferenceable(1825) %58, i32 noundef 13, ptr noundef %16, ptr noundef %17)
  store i32 %59, ptr %18, align 4, !tbaa !8
  %60 = load i32, ptr %18, align 4, !tbaa !8
  %61 = icmp slt i32 %60, 0
  %62 = zext i1 %61 to i64
  %63 = call i64 @llvm.expect.i64(i64 %62, i64 0)
  %64 = icmp ne i64 %63, 0
  br i1 %64, label %65, label %66

65:                                               ; preds = %46
  store i32 -1, ptr %7, align 4
  store i32 1, ptr %15, align 4
  br label %104

66:                                               ; preds = %46
  %67 = load ptr, ptr %10, align 8, !tbaa !3
  %68 = load ptr, ptr %11, align 8, !tbaa !25
  %69 = load i32, ptr %16, align 4, !tbaa !8
  %70 = call noundef i32 @_ZL7capturePN3zmq13socket_base_tEPNS_5msg_tEi(ptr noundef %67, ptr noundef %68, i32 noundef %69)
  store i32 %70, ptr %18, align 4, !tbaa !8
  %71 = load i32, ptr %18, align 4, !tbaa !8
  %72 = icmp slt i32 %71, 0
  %73 = zext i1 %72 to i64
  %74 = call i64 @llvm.expect.i64(i64 %73, i64 0)
  %75 = icmp ne i64 %74, 0
  br i1 %75, label %76, label %77

76:                                               ; preds = %66
  store i32 -1, ptr %7, align 4
  store i32 1, ptr %15, align 4
  br label %104

77:                                               ; preds = %66
  %78 = load ptr, ptr %9, align 8, !tbaa !3
  %79 = load ptr, ptr %11, align 8, !tbaa !25
  %80 = load i32, ptr %16, align 4, !tbaa !8
  %81 = icmp ne i32 %80, 0
  %82 = select i1 %81, i32 2, i32 0
  %83 = call noundef i32 @_ZN3zmq13socket_base_t4sendEPNS_5msg_tEi(ptr noundef nonnull align 8 dereferenceable(1825) %78, ptr noundef %79, i32 noundef %82)
  store i32 %83, ptr %18, align 4, !tbaa !8
  %84 = load i32, ptr %18, align 4, !tbaa !8
  %85 = icmp slt i32 %84, 0
  %86 = zext i1 %85 to i64
  %87 = call i64 @llvm.expect.i64(i64 %86, i64 0)
  %88 = icmp ne i64 %87, 0
  br i1 %88, label %89, label %90

89:                                               ; preds = %77
  store i32 -1, ptr %7, align 4
  store i32 1, ptr %15, align 4
  br label %104

90:                                               ; preds = %77
  %91 = load ptr, ptr %13, align 8, !tbaa !48
  %92 = getelementptr inbounds nuw %struct.stats_socket, ptr %91, i32 0, i32 0
  %93 = load i64, ptr %92, align 8, !tbaa !50
  %94 = add i64 %93, 1
  store i64 %94, ptr %92, align 8, !tbaa !50
  %95 = load i64, ptr %19, align 8, !tbaa !34
  %96 = load ptr, ptr %13, align 8, !tbaa !48
  %97 = getelementptr inbounds nuw %struct.stats_socket, ptr %96, i32 0, i32 1
  %98 = load i64, ptr %97, align 8, !tbaa !51
  %99 = add i64 %98, %95
  store i64 %99, ptr %97, align 8, !tbaa !51
  %100 = load i32, ptr %16, align 4, !tbaa !8
  %101 = icmp eq i32 %100, 0
  br i1 %101, label %102, label %103

102:                                              ; preds = %90
  store i32 6, ptr %15, align 4
  br label %104

103:                                              ; preds = %90
  store i32 0, ptr %15, align 4
  br label %104

104:                                              ; preds = %103, %102, %89, %76, %65
  call void @llvm.lifetime.end.p0(i64 8, ptr %19) #12
  br label %105

105:                                              ; preds = %104, %45, %44
  call void @llvm.lifetime.end.p0(i64 4, ptr %18) #12
  %106 = load i32, ptr %15, align 4
  switch i32 %106, label %109 [
    i32 0, label %107
    i32 6, label %108
  ]

107:                                              ; preds = %105
  br label %25, !llvm.loop !52

108:                                              ; preds = %105
  store i32 0, ptr %15, align 4
  br label %109

109:                                              ; preds = %108, %105
  call void @llvm.lifetime.end.p0(i64 8, ptr %17) #12
  call void @llvm.lifetime.end.p0(i64 4, ptr %16) #12
  %110 = load i32, ptr %15, align 4
  switch i32 %110, label %115 [
    i32 0, label %111
  ]

111:                                              ; preds = %109
  br label %112

112:                                              ; preds = %111
  %113 = load i32, ptr %14, align 4, !tbaa !8
  %114 = add i32 %113, 1
  store i32 %114, ptr %14, align 4, !tbaa !8
  br label %20, !llvm.loop !53

115:                                              ; preds = %109, %23
  call void @llvm.lifetime.end.p0(i64 4, ptr %14) #12
  %116 = load i32, ptr %15, align 4
  switch i32 %116, label %120 [
    i32 2, label %117
    i32 1, label %118
  ]

117:                                              ; preds = %115
  store i32 0, ptr %7, align 4
  br label %118

118:                                              ; preds = %117, %115
  %119 = load i32, ptr %7, align 4
  ret i32 %119

120:                                              ; preds = %115
  unreachable
}