; Function Attrs: mustprogress uwtable
define internal fastcc noundef range(i32 -1, 1) i32 @_ZL7forwardPN3zmq13socket_base_tES1_S1_PNS_5msg_tER12stats_socketS5_(ptr noundef %0, ptr noundef %1, ptr noundef %2, ptr noundef nonnull %3, ptr noundef nonnull align 8 captures(none) dereferenceable(16) %4, ptr noundef nonnull align 8 captures(none) dereferenceable(16) %5) unnamed_addr #0 {
  %7 = alloca %"class.zmq::msg_t", align 8
  %8 = alloca i32, align 4
  %9 = alloca i64, align 8
  %10 = getelementptr inbounds nuw i8, ptr %4, i64 8
  %.not.i = icmp eq ptr %2, null
  %11 = getelementptr inbounds nuw i8, ptr %5, i64 8
  br i1 %.not.i, label %.split.us.us, label %.split

.split.us.us:                                     ; preds = %6, %.split52.us.us
  %.02853.us = phi i32 [ %34, %.split52.us.us ], [ 0, %6 ]
  call void @llvm.lifetime.start.p0(i64 4, ptr nonnull %8) #11
  call void @llvm.lifetime.start.p0(i64 8, ptr nonnull %9) #11
  br label %12

12:                                               ; preds = %27, %.split.us.us
  %13 = call noundef i32 @_ZN3zmq13socket_base_t4recvEPNS_5msg_tEi(ptr noundef nonnull align 8 dereferenceable(1825) %0, ptr noundef nonnull %3, i32 noundef 1)
  %14 = icmp slt i32 %13, 0
  br i1 %14, label %.split50.us, label %15

15:                                               ; preds = %12
  %16 = call noundef i64 @_ZNK3zmq5msg_t4sizeEv(ptr noundef nonnull align 8 dereferenceable(64) %3)
  %17 = load i64, ptr %4, align 8, !tbaa !23
  %18 = add i64 %17, 1
  store i64 %18, ptr %4, align 8, !tbaa !23
  %19 = load i64, ptr %10, align 8, !tbaa !25
  %20 = add i64 %19, %16
  store i64 %20, ptr %10, align 8, !tbaa !25
  store i64 4, ptr %9, align 8, !tbaa !17
  %21 = call noundef i32 @_ZN3zmq13socket_base_t10getsockoptEiPvPm(ptr noundef nonnull align 8 dereferenceable(1825) %0, i32 noundef 13, ptr noundef nonnull %8, ptr noundef nonnull %9)
  %22 = icmp slt i32 %21, 0
  br i1 %22, label %_ZL7capturePN3zmq13socket_base_tEPNS_5msg_tEi.exit.thread, label %_ZL7capturePN3zmq13socket_base_tEPNS_5msg_tEi.exit.us.us, !prof !21

_ZL7capturePN3zmq13socket_base_tEPNS_5msg_tEi.exit.us.us: ; preds = %15
  %23 = load i32, ptr %8, align 4, !tbaa !3
  %.not.us.us = icmp eq i32 %23, 0
  %24 = select i1 %.not.us.us, i32 0, i32 2
  %25 = call noundef i32 @_ZN3zmq13socket_base_t4sendEPNS_5msg_tEi(ptr noundef nonnull align 8 dereferenceable(1825) %1, ptr noundef nonnull %3, i32 noundef %24)
  %26 = icmp slt i32 %25, 0
  br i1 %26, label %_ZL7capturePN3zmq13socket_base_tEPNS_5msg_tEi.exit.thread, label %27, !prof !21

27:                                               ; preds = %_ZL7capturePN3zmq13socket_base_tEPNS_5msg_tEi.exit.us.us
  %28 = load i64, ptr %5, align 8, !tbaa !23
  %29 = add i64 %28, 1
  store i64 %29, ptr %5, align 8, !tbaa !23
  %30 = load i64, ptr %11, align 8, !tbaa !25
  %31 = add i64 %30, %16
  store i64 %31, ptr %11, align 8, !tbaa !25
  %32 = load i32, ptr %8, align 4, !tbaa !3
  %33 = icmp eq i32 %32, 0
  br i1 %33, label %.split52.us.us, label %12

.split52.us.us:                                   ; preds = %27
  call void @llvm.lifetime.end.p0(i64 8, ptr nonnull %9) #11
  call void @llvm.lifetime.end.p0(i64 4, ptr nonnull %8) #11
  %34 = add nuw nsw i32 %.02853.us, 1
  %exitcond64 = icmp eq i32 %34, 1000
  br i1 %exitcond64, label %.loopexit, label %.split.us.us, !llvm.loop !26

.split:                                           ; preds = %6, %.split52
  %.02853 = phi i32 [ %72, %.split52 ], [ 0, %6 ]
  call void @llvm.lifetime.start.p0(i64 4, ptr nonnull %8) #11
  call void @llvm.lifetime.start.p0(i64 8, ptr nonnull %9) #11
  br label %35

35:                                               ; preds = %65, %.split
  %36 = call noundef i32 @_ZN3zmq13socket_base_t4recvEPNS_5msg_tEi(ptr noundef nonnull align 8 dereferenceable(1825) %0, ptr noundef nonnull %3, i32 noundef 1)
  %37 = icmp slt i32 %36, 0
  br i1 %37, label %.split50.us, label %42

.split50.us:                                      ; preds = %35, %12
  %.us-phi = phi i32 [ %.02853.us, %12 ], [ %.02853, %35 ]
  %38 = tail call ptr @__errno_location() #14
  %39 = load i32, ptr %38, align 4, !tbaa !3
  %40 = icmp ne i32 %39, 11
  %41 = icmp eq i32 %.us-phi, 0
  %.not45 = or i1 %41, %40
  %. = sext i1 %.not45 to i32
  br label %_ZL7capturePN3zmq13socket_base_tEPNS_5msg_tEi.exit.thread

42:                                               ; preds = %35
  %43 = call noundef i64 @_ZNK3zmq5msg_t4sizeEv(ptr noundef nonnull align 8 dereferenceable(64) %3)
  %44 = load i64, ptr %4, align 8, !tbaa !23
  %45 = add i64 %44, 1
  store i64 %45, ptr %4, align 8, !tbaa !23
  %46 = load i64, ptr %10, align 8, !tbaa !25
  %47 = add i64 %46, %43
  store i64 %47, ptr %10, align 8, !tbaa !25
  store i64 4, ptr %9, align 8, !tbaa !17
  %48 = call noundef i32 @_ZN3zmq13socket_base_t10getsockoptEiPvPm(ptr noundef nonnull align 8 dereferenceable(1825) %0, i32 noundef 13, ptr noundef nonnull %8, ptr noundef nonnull %9)
  %49 = icmp slt i32 %48, 0
  br i1 %49, label %_ZL7capturePN3zmq13socket_base_tEPNS_5msg_tEi.exit.thread, label %50, !prof !21

50:                                               ; preds = %42
  %51 = load i32, ptr %8, align 4, !tbaa !3
  call void @llvm.lifetime.start.p0(i64 64, ptr nonnull %7) #11
  %52 = call noundef i32 @_ZN3zmq5msg_t4initEv(ptr noundef nonnull align 8 dereferenceable(64) %7)
  %53 = icmp slt i32 %52, 0
  br i1 %53, label %.thread.i, label %54, !prof !21

54:                                               ; preds = %50
  %55 = call noundef i32 @_ZN3zmq5msg_t4copyERS0_(ptr noundef nonnull align 8 dereferenceable(64) %7, ptr noundef nonnull align 8 dereferenceable(64) %3)
  %56 = icmp slt i32 %55, 0
  br i1 %56, label %.thread.i, label %57, !prof !21

.thread.i:                                        ; preds = %54, %50
  call void @llvm.lifetime.end.p0(i64 64, ptr nonnull %7) #11
  br label %_ZL7capturePN3zmq13socket_base_tEPNS_5msg_tEi.exit.thread

57:                                               ; preds = %54
  %.not10.i = icmp eq i32 %51, 0
  %58 = select i1 %.not10.i, i32 0, i32 2
  %59 = call noundef i32 @_ZN3zmq13socket_base_t4sendEPNS_5msg_tEi(ptr noundef nonnull align 8 dereferenceable(1825) %2, ptr noundef nonnull %7, i32 noundef %58)
  %60 = icmp sgt i32 %59, -1
  call void @llvm.lifetime.end.p0(i64 64, ptr nonnull %7) #11
  br i1 %60, label %_ZL7capturePN3zmq13socket_base_tEPNS_5msg_tEi.exit, label %_ZL7capturePN3zmq13socket_base_tEPNS_5msg_tEi.exit.thread

_ZL7capturePN3zmq13socket_base_tEPNS_5msg_tEi.exit: ; preds = %57
  %61 = load i32, ptr %8, align 4, !tbaa !3
  %.not = icmp eq i32 %61, 0
  %62 = select i1 %.not, i32 0, i32 2
  %63 = call noundef i32 @_ZN3zmq13socket_base_t4sendEPNS_5msg_tEi(ptr noundef nonnull align 8 dereferenceable(1825) %1, ptr noundef nonnull %3, i32 noundef %62)
  %64 = icmp slt i32 %63, 0
  br i1 %64, label %_ZL7capturePN3zmq13socket_base_tEPNS_5msg_tEi.exit.thread, label %65, !prof !21

65:                                               ; preds = %_ZL7capturePN3zmq13socket_base_tEPNS_5msg_tEi.exit
  %66 = load i64, ptr %5, align 8, !tbaa !23
  %67 = add i64 %66, 1
  store i64 %67, ptr %5, align 8, !tbaa !23
  %68 = load i64, ptr %11, align 8, !tbaa !25
  %69 = add i64 %68, %43
  store i64 %69, ptr %11, align 8, !tbaa !25
  %70 = load i32, ptr %8, align 4, !tbaa !3
  %71 = icmp eq i32 %70, 0
  br i1 %71, label %.split52, label %35

_ZL7capturePN3zmq13socket_base_tEPNS_5msg_tEi.exit.thread: ; preds = %_ZL7capturePN3zmq13socket_base_tEPNS_5msg_tEi.exit, %42, %57, %15, %_ZL7capturePN3zmq13socket_base_tEPNS_5msg_tEi.exit.us.us, %.thread.i, %.split50.us
  %.3.ph = phi i32 [ %., %.split50.us ], [ -1, %.thread.i ], [ -1, %_ZL7capturePN3zmq13socket_base_tEPNS_5msg_tEi.exit.us.us ], [ -1, %15 ], [ -1, %57 ], [ -1, %42 ], [ -1, %_ZL7capturePN3zmq13socket_base_tEPNS_5msg_tEi.exit ]
  call void @llvm.lifetime.end.p0(i64 8, ptr nonnull %9) #11
  call void @llvm.lifetime.end.p0(i64 4, ptr nonnull %8) #11
  br label %.loopexit

.split52:                                         ; preds = %65
  call void @llvm.lifetime.end.p0(i64 8, ptr nonnull %9) #11
  call void @llvm.lifetime.end.p0(i64 4, ptr nonnull %8) #11
  %72 = add nuw nsw i32 %.02853, 1
  %exitcond = icmp eq i32 %72, 1000
  br i1 %exitcond, label %.loopexit, label %.split, !llvm.loop !26

.loopexit:                                        ; preds = %.split52, %.split52.us.us, %_ZL7capturePN3zmq13socket_base_tEPNS_5msg_tEi.exit.thread
  %spec.select = phi i32 [ %.3.ph, %_ZL7capturePN3zmq13socket_base_tEPNS_5msg_tEi.exit.thread ], [ 0, %.split52.us.us ], [ 0, %.split52 ]
  ret i32 %spec.select
}